target datalayout = "e-m:e-p270:32:32-p271:32:32-p272:64:64-i64:64-i128:128-f80:128-n8:16:32:64-S128"
target triple = "x86_64-unknown-linux-gnu"

%"class.(anonymous namespace)::AutoRefCount" = type { ptr }
%"struct.(anonymous namespace)::RefCounted" = type { i32 }

@_ZN12_GLOBAL__N_110RefCounted14msReleaseCountE = internal global i32 0, align 4

; Function Attrs: noreturn nounwind uwtable
define linkonce_odr hidden void @__clang_call_terminate(ptr noundef %0) #6 comdat {
  %2 = call ptr @__cxa_begin_catch(ptr %0) #7
  call void @_ZSt9terminatev() #14
  unreachable
}

; Function Attrs: mustprogress nounwind uwtable
define internal noundef i32 @_ZN12_GLOBAL__N_110RefCounted7ReleaseEv(ptr noundef nonnull align 4 dereferenceable(4) %this) #2 align 2 {
entry:
  %retval = alloca i32, align 4
  %this.addr = alloca ptr, align 8
  store ptr %this, ptr %this.addr, align 8
  %this1 = load ptr, ptr %this.addr, align 8
  %0 = load i32, ptr @_ZN12_GLOBAL__N_110RefCounted14msReleaseCountE, align 4
  %inc = add nsw i32 %0, 1
  store i32 %inc, ptr @_ZN12_GLOBAL__N_110RefCounted14msReleaseCountE, align 4
  %mRefCount = getelementptr inbounds %"struct.(anonymous namespace)::RefCounted", ptr %this1, i32 0, i32 0
  %1 = load i32, ptr %mRefCount, align 4
  %cmp = icmp sgt i32 %1, 1
  br i1 %cmp, label %if.then, label %if.end

if.then:                                          ; preds = %entry
  %mRefCount2 = getelementptr inbounds %"struct.(anonymous namespace)::RefCounted", ptr %this1, i32 0, i32 0
  %2 = load i32, ptr %mRefCount2, align 4
  %dec = add nsw i32 %2, -1
  store i32 %dec, ptr %mRefCount2, align 4
  store i32 %dec, ptr %retval, align 4
  br label %return

if.end:                                           ; preds = %entry
  %isnull = icmp eq ptr %this1, null
  br i1 %isnull, label %delete.end, label %delete.notnull

delete.notnull:                                   ; preds = %if.end
  call void @_ZdlPv(ptr noundef %this1) #13
  br label %delete.end

delete.end:                                       ; preds = %delete.notnull, %if.end
  store i32 0, ptr %retval, align 4
  br label %return

return:                                           ; preds = %delete.end, %if.then
  %3 = load i32, ptr %retval, align 4
  ret i32 %3
}

; Function Attrs: mustprogress nounwind uwtable
define internal void @_ZN12_GLOBAL__N_112AutoRefCountINS_10RefCountedEED2Ev(ptr noundef nonnull align 8 dereferenceable(8) %this) unnamed_addr #2 align 2 personality ptr @__gxx_personality_v0 {
entry:
  %this.addr = alloca ptr, align 8
  store ptr %this, ptr %this.addr, align 8
  %this1 = load ptr, ptr %this.addr, align 8
  %mpObject = getelementptr inbounds %"class.(anonymous namespace)::AutoRefCount", ptr %this1, i32 0, i32 0
  %0 = load ptr, ptr %mpObject, align 8
  %tobool = icmp ne ptr %0, null
  br i1 %tobool, label %if.then, label %if.end

if.then:                                          ; preds = %entry
  %mpObject2 = getelementptr inbounds %"class.(anonymous namespace)::AutoRefCount", ptr %this1, i32 0, i32 0
  %1 = load ptr, ptr %mpObject2, align 8
  %call = invoke noundef i32 @_ZN12_GLOBAL__N_110RefCounted7ReleaseEv(ptr noundef nonnull align 4 dereferenceable(4) %1)
          to label %invoke.cont unwind label %terminate.lpad

invoke.cont:                                      ; preds = %if.then
  br label %if.end

if.end:                                           ; preds = %invoke.cont, %entry
  ret void

terminate.lpad:                                   ; preds = %if.then
  %2 = landingpad { ptr, i32 }
          catch ptr null
  %3 = extractvalue { ptr, i32 } %2, 0
  call void @__clang_call_terminate(ptr %3) #14
  unreachable
}