; Function Attrs: mustprogress nounwind uwtable
define internal fastcc void @_ZN12_GLOBAL__N_112AutoRefCountINS_10RefCountedEED2Ev(ptr %this.0.val) unnamed_addr #5 align 2 personality ptr @__gxx_personality_v0 {
entry:
  %tobool.not = icmp eq ptr %this.0.val, null
  br i1 %tobool.not, label %if.end, label %if.then

if.then:                                          ; preds = %entry
  %0 = load i32, ptr @_ZN12_GLOBAL__N_110RefCounted14msReleaseCountE, align 4
  %inc.i = add nsw i32 %0, 1
  store i32 %inc.i, ptr @_ZN12_GLOBAL__N_110RefCounted14msReleaseCountE, align 4
  %1 = load i32, ptr %this.0.val, align 4
  %cmp.i = icmp sgt i32 %1, 1
  br i1 %cmp.i, label %if.then.i, label %delete.notnull.i

if.then.i:                                        ; preds = %if.then
  %dec.i = add nsw i32 %1, -1
  store i32 %dec.i, ptr %this.0.val, align 4
  br label %if.end

delete.notnull.i:                                 ; preds = %if.then
  tail call void @_ZdlPv(ptr noundef nonnull align 4 dereferenceable(4) %this.0.val) #19
  br label %if.end

if.end:                                           ; preds = %delete.notnull.i, %if.then.i, %entry
  ret void
}